target datalayout = "e-m:e-p270:32:32-p271:32:32-p272:64:64-i64:64-i128:128-f80:128-n8:16:32:64-S128"
target triple = "x86_64-pc-linux-gnu"

%struct.SDL_DriverXboxOne_Context = type { ptr, i16, i16, i32, i64, i8, i64, i8, i8, i8, i8, i8, i8, i8, i8, i8, i8, i8, i32, i64, i8, [64 x i8], ptr, i32 }
%struct.SDL_HIDAPI_Device = type { ptr, ptr, ptr, ptr, i16, i16, i16, ptr, %struct.SDL_GUID, i32, i32, i32, i32, i16, i16, i8, i32, i32, i32, ptr, ptr, ptr, ptr, %struct.SDL_AtomicInt, i32, ptr, i8, i8, i8, ptr, i32, ptr, ptr }
%struct.SDL_GUID = type { [16 x i8] }
%struct.SDL_AtomicInt = type { i32 }

@.str.11 = private unnamed_addr constant [32 x i8] c"That operation is not supported\00", align 1

; Function Attrs: nounwind uwtable
define internal zeroext i1 @HIDAPI_DriverXboxOne_RumbleJoystickTriggers(ptr noundef %0, ptr noundef %1, i16 noundef zeroext %2, i16 noundef zeroext %3) #0 {
  %5 = alloca i1, align 1
  %6 = alloca ptr, align 8
  %7 = alloca ptr, align 8
  %8 = alloca i16, align 2
  %9 = alloca i16, align 2
  %10 = alloca ptr, align 8
  %11 = alloca i32, align 4
  store ptr %0, ptr %6, align 8
  store ptr %1, ptr %7, align 8
  store i16 %2, ptr %8, align 2
  store i16 %3, ptr %9, align 2
  call void @llvm.lifetime.start.p0(i64 8, ptr %10) #6
  %12 = load ptr, ptr %6, align 8
  %13 = getelementptr inbounds nuw %struct.SDL_HIDAPI_Device, ptr %12, i32 0, i32 20
  %14 = load ptr, ptr %13, align 8
  store ptr %14, ptr %10, align 8
  %15 = load ptr, ptr %10, align 8
  %16 = getelementptr inbounds nuw %struct.SDL_DriverXboxOne_Context, ptr %15, i32 0, i32 11
  %17 = load i8, ptr %16, align 4, !range !3, !noundef !4
  %18 = trunc i8 %17 to i1
  br i1 %18, label %21, label %19

19:                                               ; preds = %4
  %20 = call zeroext i1 (ptr, ...) @SDL_SetError_REAL(ptr noundef @.str.11)
  store i1 %20, ptr %5, align 1
  store i32 1, ptr %11, align 4
  br label %38

21:                                               ; preds = %4
  %22 = load i16, ptr %8, align 2
  %23 = zext i16 %22 to i32
  %24 = sdiv i32 %23, 655
  %25 = trunc i32 %24 to i8
  %26 = load ptr, ptr %10, align 8
  %27 = getelementptr inbounds nuw %struct.SDL_DriverXboxOne_Context, ptr %26, i32 0, i32 16
  store i8 %25, ptr %27, align 1
  %28 = load i16, ptr %9, align 2
  %29 = zext i16 %28 to i32
  %30 = sdiv i32 %29, 655
  %31 = trunc i32 %30 to i8
  %32 = load ptr, ptr %10, align 8
  %33 = getelementptr inbounds nuw %struct.SDL_DriverXboxOne_Context, ptr %32, i32 0, i32 17
  store i8 %31, ptr %33, align 2
  %34 = load ptr, ptr %10, align 8
  %35 = getelementptr inbounds nuw %struct.SDL_DriverXboxOne_Context, ptr %34, i32 0, i32 20
  store i8 1, ptr %35, align 8
  %36 = load ptr, ptr %10, align 8
  %37 = call zeroext i1 @HIDAPI_DriverXboxOne_UpdateRumble(ptr noundef %36)
  store i1 %37, ptr %5, align 1
  store i32 1, ptr %11, align 4
  br label %38

38:                                               ; preds = %21, %19
  call void @llvm.lifetime.end.p0(i64 8, ptr %10) #6
  %39 = load i1, ptr %5, align 1
  ret i1 %39
}