; Function Attrs: nounwind uwtable
define internal zeroext i1 @HIDAPI_DriverXboxOne_RumbleJoystickTriggers(ptr noundef readonly captures(none) %0, ptr readnone captures(none) %1, i16 noundef zeroext %2, i16 noundef zeroext %3) #0 {
  %5 = getelementptr inbounds nuw i8, ptr %0, i64 112
  %6 = load ptr, ptr %5, align 8
  %7 = getelementptr inbounds nuw i8, ptr %6, i64 44
  %8 = load i8, ptr %7, align 4, !range !3, !noundef !4
  %9 = trunc nuw i8 %8 to i1
  br i1 %9, label %12, label %10

10:                                               ; preds = %4
  %11 = tail call zeroext i1 (ptr, ...) @SDL_SetError_REAL(ptr noundef nonnull @.str.11) #9
  br label %21

12:                                               ; preds = %4
  %13 = udiv i16 %2, 655
  %14 = trunc nuw nsw i16 %13 to i8
  %15 = getelementptr inbounds nuw i8, ptr %6, i64 49
  store i8 %14, ptr %15, align 1
  %16 = udiv i16 %3, 655
  %17 = trunc nuw nsw i16 %16 to i8
  %18 = getelementptr inbounds nuw i8, ptr %6, i64 50
  store i8 %17, ptr %18, align 2
  %19 = getelementptr inbounds nuw i8, ptr %6, i64 64
  store i8 1, ptr %19, align 8
  %20 = tail call fastcc zeroext i1 @HIDAPI_DriverXboxOne_UpdateRumble(ptr noundef nonnull %6)
  br label %21

21:                                               ; preds = %12, %10
  %.0 = phi i1 [ %20, %12 ], [ %11, %10 ]
  ret i1 %.0
}